target datalayout = "e-m:e-p270:32:32-p271:32:32-p272:64:64-i64:64-i128:128-f80:128-n8:16:32:64-S128"
target triple = "x86_64-pc-linux-gnu"

%"class.llvm::Twine" = type <{ %"union.llvm::Twine::Child", %"union.llvm::Twine::Child", i8, i8, [6 x i8] }>
%"union.llvm::Twine::Child" = type { %struct.anon }
%struct.anon = type { ptr, i64 }
%"class.llvm::InsertPosition" = type { %"class.llvm::ilist_iterator_w_bits" }
%"class.llvm::ilist_iterator_w_bits" = type <{ ptr, i8, i8, [6 x i8] }>
%"class.llvm::InstCombiner" = type <{ ptr, ptr, i64, ptr, ptr, i8, [7 x i8], ptr, ptr, ptr, ptr, ptr, %"struct.llvm::SimplifyQuery", ptr, ptr, ptr, ptr, %"class.llvm::DomConditionCache", ptr, i8, [7 x i8], %"class.llvm::SmallDenseSet", %"class.llvm::SmallDenseMap.4", %"class.llvm::SmallDenseSet.7", i8, [7 x i8] }>
%"struct.llvm::SimplifyQuery" = type <{ ptr, ptr, ptr, ptr, ptr, ptr, ptr, %"struct.llvm::InstrInfoQuery", i8, [6 x i8] }>
%"struct.llvm::InstrInfoQuery" = type { i8 }
%"class.llvm::DomConditionCache" = type { %"class.llvm::DenseMap" }
%"class.llvm::DenseMap" = type <{ ptr, i32, i32, i32, [4 x i8] }>
%"class.llvm::SmallDenseSet" = type { %"class.llvm::detail::DenseSetImpl" }
%"class.llvm::detail::DenseSetImpl" = type { %"class.llvm::SmallDenseMap" }
%"class.llvm::SmallDenseMap" = type { i32, i32, %"struct.llvm::AlignedCharArrayUnion" }
%"struct.llvm::AlignedCharArrayUnion" = type { [128 x i8] }
%"class.llvm::SmallDenseMap.4" = type { i32, i32, %"struct.llvm::AlignedCharArrayUnion.6" }
%"struct.llvm::AlignedCharArrayUnion.6" = type { [576 x i8] }
%"class.llvm::SmallDenseSet.7" = type { %"class.llvm::detail::DenseSetImpl.8" }
%"class.llvm::detail::DenseSetImpl.8" = type { %"class.llvm::SmallDenseMap.9" }
%"class.llvm::SmallDenseMap.9" = type { i32, i32, %"struct.llvm::AlignedCharArrayUnion.11" }
%"struct.llvm::AlignedCharArrayUnion.11" = type { [128 x i8] }
%"class.llvm::Value" = type { i8, i8, i16, i32, ptr, ptr }
%"class.llvm::Use" = type { ptr, ptr, ptr, ptr }
%"class.std::optional.92" = type { %"struct.std::_Optional_base.93" }
%"struct.std::_Optional_base.93" = type { %"struct.std::_Optional_payload.95" }
%"struct.std::_Optional_payload.95" = type { %"struct.std::_Optional_payload_base.96" }
%"struct.std::_Optional_payload_base.96" = type { %"union.std::_Optional_payload_base<bool>::_Storage", i8 }
%"union.std::_Optional_payload_base<bool>::_Storage" = type { %"struct.std::_Optional_payload_base<bool>::_Empty_byte" }
%"struct.std::_Optional_payload_base<bool>::_Empty_byte" = type { i8 }
%"class.llvm::ArrayRef.257" = type { ptr, i64 }

@.str.1 = private unnamed_addr constant [1 x i8] zeroinitializer, align 1

; Function Attrs: mustprogress nounwind uwtable
define linkonce_odr hidden noundef nonnull align 1 dereferenceable(1) ptr @_ZNSt22_Optional_payload_baseIbE6_M_getEv(ptr noundef nonnull align 1 dereferenceable(2) %0) #0 comdat align 2 {
  %2 = alloca ptr, align 8
  store ptr %0, ptr %2, align 8
  %3 = load ptr, ptr %2, align 8
  %4 = getelementptr inbounds nuw %"struct.std::_Optional_payload_base.96", ptr %3, i32 0, i32 0
  ret ptr %4
}

; Function Attrs: mustprogress nounwind uwtable
define linkonce_odr hidden noundef nonnull align 8 dereferenceable(32) ptr @_ZN4llvm4User6OpFromILi2ENS_10SelectInstEEERNS_3UseEPKT0_(ptr noundef %0) #0 comdat align 2 {
  %2 = alloca ptr, align 8
  store ptr %0, ptr %2, align 8
  %3 = load ptr, ptr %2, align 8
  %4 = call noundef ptr @_ZN4llvm21FixedNumOperandTraitsINS_10SelectInstELj3EE8op_beginEPS1_(ptr noundef %3)
  %5 = getelementptr inbounds %"class.llvm::Use", ptr %4, i64 2
  ret ptr %5
}

; Function Attrs: mustprogress nounwind uwtable
define linkonce_odr hidden noundef nonnull align 8 dereferenceable(32) ptr @_ZN4llvm4User6OpFromILi1ENS_10SelectInstEEERNS_3UseEPKT0_(ptr noundef %0) #0 comdat align 2 {
  %2 = alloca ptr, align 8
  store ptr %0, ptr %2, align 8
  %3 = load ptr, ptr %2, align 8
  %4 = call noundef ptr @_ZN4llvm21FixedNumOperandTraitsINS_10SelectInstELj3EE8op_beginEPS1_(ptr noundef %3)
  %5 = getelementptr inbounds %"class.llvm::Use", ptr %4, i64 1
  ret ptr %5
}

; Function Attrs: mustprogress nounwind uwtable
define linkonce_odr hidden noundef ptr @_ZN4llvm21FixedNumOperandTraitsINS_10SelectInstELj3EE8op_beginEPS1_(ptr noundef %0) #0 comdat align 2 {
  %2 = alloca ptr, align 8
  store ptr %0, ptr %2, align 8
  %3 = load ptr, ptr %2, align 8
  %4 = getelementptr inbounds %"class.llvm::Use", ptr %3, i64 -3
  ret ptr %4
}

; Function Attrs: mustprogress nounwind uwtable
define linkonce_odr hidden noundef nonnull align 1 dereferenceable(1) ptr @_ZNSt19_Optional_base_implIbSt14_Optional_baseIbLb1ELb1EEE6_M_getEv(ptr noundef nonnull align 1 dereferenceable(1) %0) #0 comdat align 2 {
  %2 = alloca ptr, align 8
  store ptr %0, ptr %2, align 8
  %3 = load ptr, ptr %2, align 8
  br label %4

4:                                                ; preds = %1
  br label %5

5:                                                ; preds = %4
  %6 = getelementptr inbounds nuw %"struct.std::_Optional_base.93", ptr %3, i32 0, i32 0
  %7 = call noundef nonnull align 1 dereferenceable(1) ptr @_ZNSt22_Optional_payload_baseIbE6_M_getEv(ptr noundef nonnull align 1 dereferenceable(2) %6) #11
  ret ptr %7
}

; Function Attrs: mustprogress nounwind uwtable
define linkonce_odr hidden noundef zeroext i1 @_ZNKSt19_Optional_base_implIbSt14_Optional_baseIbLb1ELb1EEE13_M_is_engagedEv(ptr noundef nonnull align 1 dereferenceable(1) %0) #0 comdat align 2 {
  %2 = alloca ptr, align 8
  store ptr %0, ptr %2, align 8
  %3 = load ptr, ptr %2, align 8
  %4 = getelementptr inbounds nuw %"struct.std::_Optional_base.93", ptr %3, i32 0, i32 0
  %5 = getelementptr inbounds nuw %"struct.std::_Optional_payload_base.96", ptr %4, i32 0, i32 1
  %6 = load i8, ptr %5, align 1
  %7 = trunc i8 %6 to i1
  ret i1 %7
}

; Function Attrs: mustprogress nounwind uwtable
define linkonce_odr hidden noundef nonnull align 8 dereferenceable(32) ptr @_ZN4llvm10SelectInst2OpILi2EEERNS_3UseEv(ptr noundef nonnull align 8 dereferenceable(72) %0) #0 comdat align 2 {
  %2 = alloca ptr, align 8
  store ptr %0, ptr %2, align 8
  %3 = load ptr, ptr %2, align 8
  %4 = call noundef nonnull align 8 dereferenceable(32) ptr @_ZN4llvm4User6OpFromILi2ENS_10SelectInstEEERNS_3UseEPKT0_(ptr noundef %3)
  ret ptr %4
}

; Function Attrs: mustprogress nounwind uwtable
define linkonce_odr hidden noundef nonnull align 8 dereferenceable(32) ptr @_ZN4llvm10SelectInst2OpILi1EEERNS_3UseEv(ptr noundef nonnull align 8 dereferenceable(72) %0) #0 comdat align 2 {
  %2 = alloca ptr, align 8
  store ptr %0, ptr %2, align 8
  %3 = load ptr, ptr %2, align 8
  %4 = call noundef nonnull align 8 dereferenceable(32) ptr @_ZN4llvm4User6OpFromILi1ENS_10SelectInstEEERNS_3UseEPKT0_(ptr noundef %3)
  ret ptr %4
}

; Function Attrs: mustprogress nounwind uwtable
define linkonce_odr hidden noundef nonnull align 8 dereferenceable(32) ptr @_ZN4llvm4User6OpFromILi0ENS_10SelectInstEEERNS_3UseEPKT0_(ptr noundef %0) #0 comdat align 2 {
  %2 = alloca ptr, align 8
  store ptr %0, ptr %2, align 8
  %3 = load ptr, ptr %2, align 8
  %4 = call noundef ptr @_ZN4llvm21FixedNumOperandTraitsINS_10SelectInstELj3EE8op_beginEPS1_(ptr noundef %3)
  %5 = getelementptr inbounds %"class.llvm::Use", ptr %4, i64 0
  ret ptr %5
}

; Function Attrs: mustprogress nounwind uwtable
define linkonce_odr hidden void @_ZN4llvm8ArrayRefIjEC2Ev(ptr noundef nonnull align 8 dereferenceable(16) %0) unnamed_addr #0 comdat align 2 {
  %2 = alloca ptr, align 8
  store ptr %0, ptr %2, align 8
  %3 = load ptr, ptr %2, align 8
  %4 = getelementptr inbounds nuw %"class.llvm::ArrayRef.257", ptr %3, i32 0, i32 0
  store ptr null, ptr %4, align 8
  %5 = getelementptr inbounds nuw %"class.llvm::ArrayRef.257", ptr %3, i32 0, i32 1
  store i64 0, ptr %5, align 8
  ret void
}

; Function Attrs: mustprogress nounwind uwtable
define linkonce_odr hidden void @_ZN4llvm21ilist_iterator_w_bitsINS_12ilist_detail12node_optionsINS_11InstructionELb0ELb0EvLb1ENS_10BasicBlockEEELb0ELb0EEC2Ev(ptr noundef nonnull align 8 dereferenceable(10) %0) unnamed_addr #0 comdat align 2 {
  %2 = alloca ptr, align 8
  store ptr %0, ptr %2, align 8
  %3 = load ptr, ptr %2, align 8
  %4 = getelementptr inbounds nuw %"class.llvm::ilist_iterator_w_bits", ptr %3, i32 0, i32 0
  store ptr null, ptr %4, align 8
  %5 = getelementptr inbounds nuw %"class.llvm::ilist_iterator_w_bits", ptr %3, i32 0, i32 1
  store i8 0, ptr %5, align 8
  %6 = getelementptr inbounds nuw %"class.llvm::ilist_iterator_w_bits", ptr %3, i32 0, i32 2
  store i8 0, ptr %6, align 1
  ret void
}

; Function Attrs: mustprogress nounwind uwtable
define linkonce_odr hidden noundef nonnull align 1 dereferenceable(1) ptr @_ZNRSt8optionalIbEdeEv(ptr noundef nonnull align 1 dereferenceable(2) %0) #0 comdat align 2 {
  %2 = alloca ptr, align 8
  store ptr %0, ptr %2, align 8
  %3 = load ptr, ptr %2, align 8
  %4 = call noundef nonnull align 1 dereferenceable(1) ptr @_ZNSt19_Optional_base_implIbSt14_Optional_baseIbLb1ELb1EEE6_M_getEv(ptr noundef nonnull align 1 dereferenceable(1) %3) #11
  ret ptr %4
}

; Function Attrs: mustprogress nounwind uwtable
define linkonce_odr hidden noundef zeroext i1 @_ZNKSt8optionalIbEcvbEv(ptr noundef nonnull align 1 dereferenceable(2) %0) #0 comdat align 2 {
  %2 = alloca ptr, align 8
  store ptr %0, ptr %2, align 8
  %3 = load ptr, ptr %2, align 8
  %4 = call noundef zeroext i1 @_ZNKSt19_Optional_base_implIbSt14_Optional_baseIbLb1ELb1EEE13_M_is_engagedEv(ptr noundef nonnull align 1 dereferenceable(1) %3) #11
  ret i1 %4
}

; Function Attrs: mustprogress nounwind uwtable
define linkonce_odr hidden noundef ptr @_ZN4llvm10SelectInst13getFalseValueEv(ptr noundef nonnull align 8 dereferenceable(72) %0) #0 comdat align 2 {
  %2 = alloca ptr, align 8
  store ptr %0, ptr %2, align 8
  %3 = load ptr, ptr %2, align 8
  %4 = call noundef nonnull align 8 dereferenceable(32) ptr @_ZN4llvm10SelectInst2OpILi2EEERNS_3UseEv(ptr noundef nonnull align 8 dereferenceable(72) %3)
  %5 = call noundef ptr @_ZNK4llvm3UsecvPNS_5ValueEEv(ptr noundef nonnull align 8 dereferenceable(32) %4)
  ret ptr %5
}

; Function Attrs: mustprogress nounwind uwtable
define linkonce_odr hidden noundef ptr @_ZN4llvm10SelectInst12getTrueValueEv(ptr noundef nonnull align 8 dereferenceable(72) %0) #0 comdat align 2 {
  %2 = alloca ptr, align 8
  store ptr %0, ptr %2, align 8
  %3 = load ptr, ptr %2, align 8
  %4 = call noundef nonnull align 8 dereferenceable(32) ptr @_ZN4llvm10SelectInst2OpILi1EEERNS_3UseEv(ptr noundef nonnull align 8 dereferenceable(72) %3)
  %5 = call noundef ptr @_ZNK4llvm3UsecvPNS_5ValueEEv(ptr noundef nonnull align 8 dereferenceable(32) %4)
  ret ptr %5
}

; Function Attrs: mustprogress nounwind uwtable
define linkonce_odr hidden noundef ptr @_ZNK4llvm3UsecvPNS_5ValueEEv(ptr noundef nonnull align 8 dereferenceable(32) %0) #0 comdat align 2 {
  %2 = alloca ptr, align 8
  store ptr %0, ptr %2, align 8
  %3 = load ptr, ptr %2, align 8
  %4 = getelementptr inbounds nuw %"class.llvm::Use", ptr %3, i32 0, i32 0
  %5 = load ptr, ptr %4, align 8
  ret ptr %5
}

; Function Attrs: mustprogress nounwind uwtable
define linkonce_odr hidden noundef nonnull align 8 dereferenceable(32) ptr @_ZN4llvm10SelectInst2OpILi0EEERNS_3UseEv(ptr noundef nonnull align 8 dereferenceable(72) %0) #0 comdat align 2 {
  %2 = alloca ptr, align 8
  store ptr %0, ptr %2, align 8
  %3 = load ptr, ptr %2, align 8
  %4 = call noundef nonnull align 8 dereferenceable(32) ptr @_ZN4llvm4User6OpFromILi0ENS_10SelectInstEEERNS_3UseEPKT0_(ptr noundef %3)
  ret ptr %4
}

; Function Attrs: mustprogress nounwind uwtable
define linkonce_odr hidden noundef ptr @_ZN4llvm10SelectInst6CreateEPNS_5ValueES2_S2_RKNS_5TwineENS_14InsertPositionEPNS_11InstructionE(ptr noundef %0, ptr noundef %1, ptr noundef %2, ptr noundef nonnull align 8 dereferenceable(34) %3, ptr %4, i64 %5, ptr noundef %6) #0 comdat align 2 {
  %8 = alloca %"class.llvm::InsertPosition", align 8
  %9 = alloca ptr, align 8
  %10 = alloca ptr, align 8
  %11 = alloca ptr, align 8
  %12 = alloca ptr, align 8
  %13 = alloca ptr, align 8
  %14 = alloca ptr, align 8
  %15 = alloca %"class.llvm::InsertPosition", align 8
  %16 = alloca %"class.llvm::ArrayRef.257", align 8
  %17 = getelementptr inbounds nuw { ptr, i64 }, ptr %8, i32 0, i32 0
  store ptr %4, ptr %17, align 8
  %18 = getelementptr inbounds nuw { ptr, i64 }, ptr %8, i32 0, i32 1
  store i64 %5, ptr %18, align 8
  store ptr %0, ptr %9, align 8
  store ptr %1, ptr %10, align 8
  store ptr %2, ptr %11, align 8
  store ptr %3, ptr %12, align 8
  store ptr %6, ptr %13, align 8
  %19 = call noundef ptr @_ZN4llvm4UsernwEmj(i64 noundef 72, i32 noundef 3)
  %20 = load ptr, ptr %9, align 8
  %21 = load ptr, ptr %10, align 8
  %22 = load ptr, ptr %11, align 8
  %23 = load ptr, ptr %12, align 8
  call void @llvm.memcpy.p0.p0.i64(ptr align 8 %15, ptr align 8 %8, i64 16, i1 false)
  call void @_ZN4llvm10SelectInstC2EPNS_5ValueES2_S2_RKNS_5TwineENS_14InsertPositionE(ptr noundef nonnull align 8 dereferenceable(72) %19, ptr noundef %20, ptr noundef %21, ptr noundef %22, ptr noundef nonnull align 8 dereferenceable(34) %23, ptr noundef byval(%"class.llvm::InsertPosition") align 8 %15)
  store ptr %19, ptr %14, align 8
  %24 = load ptr, ptr %13, align 8
  %25 = icmp ne ptr %24, null
  br i1 %25, label %26, label %33

26:                                               ; preds = %7
  %27 = load ptr, ptr %14, align 8
  %28 = load ptr, ptr %13, align 8
  call void @llvm.memset.p0.i64(ptr align 8 %16, i8 0, i64 16, i1 false)
  call void @_ZN4llvm8ArrayRefIjEC2Ev(ptr noundef nonnull align 8 dereferenceable(16) %16) #11
  %29 = getelementptr inbounds nuw { ptr, i64 }, ptr %16, i32 0, i32 0
  %30 = load ptr, ptr %29, align 8
  %31 = getelementptr inbounds nuw { ptr, i64 }, ptr %16, i32 0, i32 1
  %32 = load i64, ptr %31, align 8
  call void @_ZN4llvm11Instruction12copyMetadataERKS0_NS_8ArrayRefIjEE(ptr noundef nonnull align 8 dereferenceable(72) %27, ptr noundef nonnull align 8 dereferenceable(72) %28, ptr %30, i64 %32)
  br label %33

33:                                               ; preds = %26, %7
  %34 = load ptr, ptr %14, align 8
  ret ptr %34
}

; Function Attrs: mustprogress nounwind uwtable
define linkonce_odr hidden void @_ZN4llvm14InsertPositionC2EDn(ptr noundef nonnull align 8 dereferenceable(16) %0, ptr %1) unnamed_addr #0 comdat align 2 {
  %3 = alloca ptr, align 8
  %4 = alloca ptr, align 8
  store ptr %0, ptr %3, align 8
  store ptr %1, ptr %4, align 8
  %5 = load ptr, ptr %3, align 8
  %6 = getelementptr inbounds nuw %"class.llvm::InsertPosition", ptr %5, i32 0, i32 0
  call void @llvm.memset.p0.i64(ptr align 8 %6, i8 0, i64 16, i1 false)
  call void @_ZN4llvm21ilist_iterator_w_bitsINS_12ilist_detail12node_optionsINS_11InstructionELb0ELb0EvLb1ENS_10BasicBlockEEELb0ELb0EEC2Ev(ptr noundef nonnull align 8 dereferenceable(10) %6) #11
  ret void
}

; Function Attrs: mustprogress nounwind uwtable
define linkonce_odr hidden void @_ZN4llvm5TwineC2EPKc(ptr noundef nonnull align 8 dereferenceable(34) %0, ptr noundef %1) unnamed_addr #0 comdat align 2 {
  %3 = alloca ptr, align 8
  %4 = alloca ptr, align 8
  store ptr %0, ptr %3, align 8
  store ptr %1, ptr %4, align 8
  %5 = load ptr, ptr %3, align 8
  %6 = getelementptr inbounds nuw %"class.llvm::Twine", ptr %5, i32 0, i32 2
  store i8 1, ptr %6, align 8
  %7 = getelementptr inbounds nuw %"class.llvm::Twine", ptr %5, i32 0, i32 3
  store i8 1, ptr %7, align 1
  %8 = load ptr, ptr %4, align 8
  %9 = getelementptr inbounds i8, ptr %8, i64 0
  %10 = load i8, ptr %9, align 1
  %11 = sext i8 %10 to i32
  %12 = icmp ne i32 %11, 0
  br i1 %12, label %13, label %17

13:                                               ; preds = %2
  %14 = load ptr, ptr %4, align 8
  %15 = getelementptr inbounds nuw %"class.llvm::Twine", ptr %5, i32 0, i32 0
  store ptr %14, ptr %15, align 8
  %16 = getelementptr inbounds nuw %"class.llvm::Twine", ptr %5, i32 0, i32 2
  store i8 3, ptr %16, align 8
  br label %19

17:                                               ; preds = %2
  %18 = getelementptr inbounds nuw %"class.llvm::Twine", ptr %5, i32 0, i32 2
  store i8 1, ptr %18, align 8
  br label %19

19:                                               ; preds = %17, %13
  ret void
}

; Function Attrs: mustprogress nounwind uwtable
define internal noundef ptr @_ZL37simplifyNestedSelectsUsingImpliedCondRN4llvm10SelectInstEPNS_5ValueEbRKNS_10DataLayoutE(ptr noundef nonnull align 8 dereferenceable(72) %0, ptr noundef %1, i1 noundef zeroext %2, ptr noundef nonnull align 8 dereferenceable(512) %3) #0 {
  %5 = alloca ptr, align 8
  %6 = alloca ptr, align 8
  %7 = alloca ptr, align 8
  %8 = alloca i8, align 1
  %9 = alloca ptr, align 8
  %10 = alloca ptr, align 8
  %11 = alloca ptr, align 8
  %12 = alloca ptr, align 8
  %13 = alloca %"class.std::optional.92", align 1
  store ptr %0, ptr %6, align 8
  store ptr %1, ptr %7, align 8
  %14 = zext i1 %2 to i8
  store i8 %14, ptr %8, align 1
  store ptr %3, ptr %9, align 8
  %15 = load ptr, ptr %6, align 8
  %16 = call noundef ptr @_ZN4llvm10SelectInst12getConditionEv(ptr noundef nonnull align 8 dereferenceable(72) %15)
  store ptr %16, ptr %10, align 8
  %17 = load ptr, ptr %6, align 8
  %18 = call noundef ptr @_ZN4llvm10SelectInst12getTrueValueEv(ptr noundef nonnull align 8 dereferenceable(72) %17)
  store ptr %18, ptr %11, align 8
  %19 = load ptr, ptr %6, align 8
  %20 = call noundef ptr @_ZN4llvm10SelectInst13getFalseValueEv(ptr noundef nonnull align 8 dereferenceable(72) %19)
  store ptr %20, ptr %12, align 8
  %21 = load ptr, ptr %7, align 8
  %22 = load ptr, ptr %10, align 8
  %23 = load ptr, ptr %9, align 8
  %24 = load i8, ptr %8, align 1
  %25 = trunc i8 %24 to i1
  %26 = call i16 @_ZN4llvm18isImpliedConditionEPKNS_5ValueES2_RKNS_10DataLayoutEbj(ptr noundef %21, ptr noundef %22, ptr noundef nonnull align 8 dereferenceable(512) %23, i1 noundef zeroext %25, i32 noundef 0)
  %27 = getelementptr inbounds nuw %"class.std::optional.92", ptr %13, i32 0, i32 0
  %28 = getelementptr inbounds nuw %"struct.std::_Optional_base.93", ptr %27, i32 0, i32 0
  %29 = getelementptr inbounds nuw %"struct.std::_Optional_payload.95", ptr %28, i32 0, i32 0
  store i16 %26, ptr %29, align 1
  %30 = call noundef zeroext i1 @_ZNKSt8optionalIbEcvbEv(ptr noundef nonnull align 1 dereferenceable(2) %13) #11
  br i1 %30, label %31, label %41

31:                                               ; preds = %4
  %32 = call noundef nonnull align 1 dereferenceable(1) ptr @_ZNRSt8optionalIbEdeEv(ptr noundef nonnull align 1 dereferenceable(2) %13) #11
  %33 = load i8, ptr %32, align 1
  %34 = trunc i8 %33 to i1
  br i1 %34, label %35, label %37

35:                                               ; preds = %31
  %36 = load ptr, ptr %11, align 8
  br label %39

37:                                               ; preds = %31
  %38 = load ptr, ptr %12, align 8
  br label %39

39:                                               ; preds = %37, %35
  %40 = phi ptr [ %36, %35 ], [ %38, %37 ]
  store ptr %40, ptr %5, align 8
  br label %42

41:                                               ; preds = %4
  store ptr null, ptr %5, align 8
  br label %42

42:                                               ; preds = %41, %39
  %43 = load ptr, ptr %5, align 8
  ret ptr %43
}

; Function Attrs: mustprogress nounwind uwtable
define linkonce_odr hidden noundef ptr @_ZNK4llvm5Value7getTypeEv(ptr noundef nonnull align 8 dereferenceable(24) %0) #0 comdat align 2 {
  %2 = alloca ptr, align 8
  store ptr %0, ptr %2, align 8
  %3 = load ptr, ptr %2, align 8
  %4 = getelementptr inbounds nuw %"class.llvm::Value", ptr %3, i32 0, i32 4
  %5 = load ptr, ptr %4, align 8
  ret ptr %5
}

; Function Attrs: mustprogress nounwind uwtable
define linkonce_odr hidden noundef ptr @_ZN4llvm10SelectInst12getConditionEv(ptr noundef nonnull align 8 dereferenceable(72) %0) #0 comdat align 2 {
  %2 = alloca ptr, align 8
  store ptr %0, ptr %2, align 8
  %3 = load ptr, ptr %2, align 8
  %4 = call noundef nonnull align 8 dereferenceable(32) ptr @_ZN4llvm10SelectInst2OpILi0EEERNS_3UseEv(ptr noundef nonnull align 8 dereferenceable(72) %3)
  %5 = call noundef ptr @_ZNK4llvm3UsecvPNS_5ValueEEv(ptr noundef nonnull align 8 dereferenceable(32) %4)
  ret ptr %5
}

; Function Attrs: mustprogress nounwind uwtable
define hidden noundef ptr @_ZN4llvm16InstCombinerImpl33foldAndOrOfSelectUsingImpliedCondEPNS_5ValueERNS_10SelectInstEb(ptr noundef nonnull align 8 dereferenceable(1088) %0, ptr noundef %1, ptr noundef nonnull align 8 dereferenceable(72) %2, i1 noundef zeroext %3) #0 align 2 {
  %5 = alloca ptr, align 8
  %6 = alloca ptr, align 8
  %7 = alloca ptr, align 8
  %8 = alloca ptr, align 8
  %9 = alloca i8, align 1
  %10 = alloca ptr, align 8
  %11 = alloca %"class.llvm::Twine", align 8
  %12 = alloca %"class.llvm::InsertPosition", align 8
  store ptr %0, ptr %6, align 8
  store ptr %1, ptr %7, align 8
  store ptr %2, ptr %8, align 8
  %13 = zext i1 %3 to i8
  store i8 %13, ptr %9, align 1
  %14 = load ptr, ptr %6, align 8
  %15 = load ptr, ptr %8, align 8
  %16 = call noundef ptr @_ZN4llvm10SelectInst12getConditionEv(ptr noundef nonnull align 8 dereferenceable(72) %15)
  %17 = call noundef ptr @_ZNK4llvm5Value7getTypeEv(ptr noundef nonnull align 8 dereferenceable(24) %16)
  %18 = load ptr, ptr %7, align 8
  %19 = call noundef ptr @_ZNK4llvm5Value7getTypeEv(ptr noundef nonnull align 8 dereferenceable(24) %18)
  %20 = icmp ne ptr %17, %19
  br i1 %20, label %21, label %22

21:                                               ; preds = %4
  store ptr null, ptr %5, align 8
  br label %60

22:                                               ; preds = %4
  %23 = load ptr, ptr %8, align 8
  %24 = load ptr, ptr %7, align 8
  %25 = load i8, ptr %9, align 1
  %26 = trunc i8 %25 to i1
  %27 = getelementptr inbounds nuw %"class.llvm::InstCombiner", ptr %14, i32 0, i32 11
  %28 = load ptr, ptr %27, align 8
  %29 = call noundef ptr @_ZL37simplifyNestedSelectsUsingImpliedCondRN4llvm10SelectInstEPNS_5ValueEbRKNS_10DataLayoutE(ptr noundef nonnull align 8 dereferenceable(72) %23, ptr noundef %24, i1 noundef zeroext %26, ptr noundef nonnull align 8 dereferenceable(512) %28)
  store ptr %29, ptr %10, align 8
  %30 = load ptr, ptr %10, align 8
  %31 = icmp ne ptr %30, null
  br i1 %31, label %32, label %59

32:                                               ; preds = %22
  %33 = load ptr, ptr %7, align 8
  %34 = load i8, ptr %9, align 1
  %35 = trunc i8 %34 to i1
  br i1 %35, label %36, label %38

36:                                               ; preds = %32
  %37 = load ptr, ptr %10, align 8
  br label %42

38:                                               ; preds = %32
  %39 = load ptr, ptr %7, align 8
  %40 = call noundef ptr @_ZNK4llvm5Value7getTypeEv(ptr noundef nonnull align 8 dereferenceable(24) %39)
  %41 = call noundef ptr @_ZN4llvm11ConstantInt7getTrueEPNS_4TypeE(ptr noundef %40)
  br label %42

42:                                               ; preds = %38, %36
  %43 = phi ptr [ %37, %36 ], [ %41, %38 ]
  %44 = load i8, ptr %9, align 1
  %45 = trunc i8 %44 to i1
  br i1 %45, label %46, label %50

46:                                               ; preds = %42
  %47 = load ptr, ptr %7, align 8
  %48 = call noundef ptr @_ZNK4llvm5Value7getTypeEv(ptr noundef nonnull align 8 dereferenceable(24) %47)
  %49 = call noundef ptr @_ZN4llvm11ConstantInt8getFalseEPNS_4TypeE(ptr noundef %48)
  br label %52

50:                                               ; preds = %42
  %51 = load ptr, ptr %10, align 8
  br label %52

52:                                               ; preds = %50, %46
  %53 = phi ptr [ %49, %46 ], [ %51, %50 ]
  call void @_ZN4llvm5TwineC2EPKc(ptr noundef nonnull align 8 dereferenceable(34) %11, ptr noundef @.str.1)
  call void @_ZN4llvm14InsertPositionC2EDn(ptr noundef nonnull align 8 dereferenceable(16) %12, ptr null)
  %54 = getelementptr inbounds nuw { ptr, i64 }, ptr %12, i32 0, i32 0
  %55 = load ptr, ptr %54, align 8
  %56 = getelementptr inbounds nuw { ptr, i64 }, ptr %12, i32 0, i32 1
  %57 = load i64, ptr %56, align 8
  %58 = call noundef ptr @_ZN4llvm10SelectInst6CreateEPNS_5ValueES2_S2_RKNS_5TwineENS_14InsertPositionEPNS_11InstructionE(ptr noundef %33, ptr noundef %43, ptr noundef %53, ptr noundef nonnull align 8 dereferenceable(34) %11, ptr %55, i64 %57, ptr noundef null)
  store ptr %58, ptr %5, align 8
  br label %60

59:                                               ; preds = %22
  store ptr null, ptr %5, align 8
  br label %60

60:                                               ; preds = %59, %52, %21
  %61 = load ptr, ptr %5, align 8
  ret ptr %61
}