; Function Attrs: mustprogress nounwind uwtable
define hidden noundef ptr @_ZN4llvm16InstCombinerImpl33foldAndOrOfSelectUsingImpliedCondEPNS_5ValueERNS_10SelectInstEb(ptr nocapture noundef nonnull readonly align 8 dereferenceable(1088) %0, ptr noundef %1, ptr nocapture noundef nonnull readonly align 8 dereferenceable(72) %2, i1 noundef zeroext %3) local_unnamed_addr #0 align 2 {
  %5 = alloca %"class.llvm::InsertPosition", align 8
  %6 = alloca %"class.llvm::Twine", align 8
  %7 = getelementptr inbounds i8, ptr %2, i64 -96
  %8 = load ptr, ptr %7, align 8
  %9 = getelementptr inbounds nuw i8, ptr %8, i64 8
  %10 = load ptr, ptr %9, align 8
  %11 = getelementptr inbounds nuw i8, ptr %1, i64 8
  %12 = load ptr, ptr %11, align 8
  %.not = icmp eq ptr %10, %12
  br i1 %.not, label %13, label %35

13:                                               ; preds = %4
  %14 = getelementptr inbounds nuw i8, ptr %0, i64 80
  %15 = load ptr, ptr %14, align 8
  %16 = getelementptr inbounds i8, ptr %2, i64 -64
  %17 = load ptr, ptr %16, align 8
  %18 = getelementptr inbounds i8, ptr %2, i64 -32
  %19 = load ptr, ptr %18, align 8
  %20 = tail call i16 @_ZN4llvm18isImpliedConditionEPKNS_5ValueES2_RKNS_10DataLayoutEbj(ptr noundef nonnull %1, ptr noundef nonnull %8, ptr noundef nonnull align 8 dereferenceable(512) %15, i1 noundef zeroext %3, i32 noundef 0) #17
  %21 = and i16 %20, 256
  %.not.i = icmp eq i16 %21, 0
  %22 = trunc i16 %20 to i1
  %23 = select i1 %22, ptr %17, ptr %19
  %.not1516 = icmp eq ptr %23, null
  %.not15 = select i1 %.not.i, i1 true, i1 %.not1516
  br i1 %.not15, label %35, label %24

24:                                               ; preds = %13
  %25 = load ptr, ptr %11, align 8
  br i1 %3, label %28, label %26

26:                                               ; preds = %24
  %27 = tail call noundef ptr @_ZN4llvm11ConstantInt7getTrueEPNS_4TypeE(ptr noundef %25) #17
  br label %30

28:                                               ; preds = %24
  %29 = tail call noundef ptr @_ZN4llvm11ConstantInt8getFalseEPNS_4TypeE(ptr noundef %25) #17
  br label %30

30:                                               ; preds = %26, %28
  %31 = phi ptr [ %23, %28 ], [ %27, %26 ]
  %32 = phi ptr [ %29, %28 ], [ %23, %26 ]
  %33 = getelementptr inbounds nuw i8, ptr %6, i64 32
  store i16 257, ptr %33, align 8
  call void @llvm.lifetime.start.p0(i64 16, ptr nonnull %5)
  %34 = tail call noundef ptr @_ZN4llvm4UsernwEmj(i64 noundef 72, i32 noundef 3) #17
  call void @llvm.memset.p0.i64(ptr noundef nonnull align 8 dereferenceable(16) %5, i8 0, i64 16, i1 false)
  call void @_ZN4llvm10SelectInstC2EPNS_5ValueES2_S2_RKNS_5TwineENS_14InsertPositionE(ptr noundef nonnull align 8 dereferenceable(72) %34, ptr noundef nonnull %1, ptr noundef %31, ptr noundef %32, ptr noundef nonnull align 8 dereferenceable(34) %6, ptr noundef nonnull byval(%"class.llvm::InsertPosition") align 8 %5)
  call void @llvm.lifetime.end.p0(i64 16, ptr nonnull %5)
  br label %35

35:                                               ; preds = %13, %4, %30
  %.0 = phi ptr [ %34, %30 ], [ null, %4 ], [ null, %13 ]
  ret ptr %.0
}